target datalayout = "e-m:e-p270:32:32-p271:32:32-p272:64:64-i64:64-i128:128-f80:128-n8:16:32:64-S128"
target triple = "x86_64-pc-linux-gnu"

%"class.nanobind::handle" = type { ptr }
%struct.Example = type { i32 }
%"struct.std::_Head_base.357" = type { ptr }
%class.anon.361 = type { i8 }
%"class.std::unique_ptr.363" = type { %"struct.std::__uniq_ptr_data.364" }
%"struct.std::__uniq_ptr_data.364" = type { %"class.std::__uniq_ptr_impl.365" }
%"class.std::__uniq_ptr_impl.365" = type { %"class.std::tuple.366" }
%"class.std::tuple.366" = type { %"struct.std::_Tuple_impl.367" }
%"struct.std::_Tuple_impl.367" = type { %"struct.std::_Tuple_impl.368", %"struct.std::_Head_base.357" }
%"struct.std::_Tuple_impl.368" = type { %"struct.std::_Head_base.369" }
%"struct.std::_Head_base.369" = type { %"struct.nanobind::deleter" }
%"struct.nanobind::deleter" = type { ptr }

@_ZL7created = internal global i32 0, align 4

; Function Attrs: mustprogress nounwind optsize uwtable
define linkonce_odr hidden void @_ZN8nanobind7deleterI7ExampleEC2Ev(ptr noundef nonnull align 8 dereferenceable(8) %0) unnamed_addr #8 comdat align 2 {
  %2 = alloca ptr, align 8
  store ptr %0, ptr %2, align 8, !tbaa !664
  %3 = load ptr, ptr %2, align 8
  %4 = getelementptr inbounds nuw %"struct.nanobind::deleter", ptr %3, i32 0, i32 0
  store ptr null, ptr %4, align 8, !tbaa !666
  ret void
}

; Function Attrs: mustprogress nounwind optsize uwtable
define linkonce_odr hidden void @_ZNSt10_Head_baseILm1EN8nanobind7deleterI7ExampleEELb0EEC2Ev(ptr noundef nonnull align 8 dereferenceable(8) %0) unnamed_addr #8 comdat align 2 {
  %2 = alloca ptr, align 8
  store ptr %0, ptr %2, align 8, !tbaa !674
  %3 = load ptr, ptr %2, align 8
  %4 = getelementptr inbounds nuw %"struct.std::_Head_base.369", ptr %3, i32 0, i32 0
  call void @llvm.memset.p0.i64(ptr align 8 %4, i8 0, i64 8, i1 false)
  call void @_ZN8nanobind7deleterI7ExampleEC2Ev(ptr noundef nonnull align 8 dereferenceable(8) %4) #21
  ret void
}

; Function Attrs: mustprogress nounwind optsize uwtable
define linkonce_odr hidden noundef nonnull align 8 dereferenceable(8) ptr @_ZNSt10_Head_baseILm1EN8nanobind7deleterI7ExampleEELb0EE7_M_headERS4_(ptr noundef nonnull align 8 dereferenceable(8) %0) #8 comdat align 2 {
  %2 = alloca ptr, align 8
  store ptr %0, ptr %2, align 8, !tbaa !674
  %3 = load ptr, ptr %2, align 8, !tbaa !674
  %4 = getelementptr inbounds nuw %"struct.std::_Head_base.369", ptr %3, i32 0, i32 0
  ret ptr %4
}

; Function Attrs: mustprogress nounwind optsize uwtable
define linkonce_odr hidden void @_ZNSt10_Head_baseILm0EP7ExampleLb0EEC2Ev(ptr noundef nonnull align 8 dereferenceable(8) %0) unnamed_addr #8 comdat align 2 {
  %2 = alloca ptr, align 8
  store ptr %0, ptr %2, align 8, !tbaa !642
  %3 = load ptr, ptr %2, align 8
  %4 = getelementptr inbounds nuw %"struct.std::_Head_base.357", ptr %3, i32 0, i32 0
  store ptr null, ptr %4, align 8, !tbaa !652
  ret void
}

; Function Attrs: mustprogress optsize uwtable
define linkonce_odr hidden void @_ZNSt11_Tuple_implILm1EJN8nanobind7deleterI7ExampleEEEEC2Ev(ptr noundef nonnull align 8 dereferenceable(8) %0) unnamed_addr #0 comdat align 2 {
  %2 = alloca ptr, align 8
  store ptr %0, ptr %2, align 8, !tbaa !672
  %3 = load ptr, ptr %2, align 8
  call void @_ZNSt10_Head_baseILm1EN8nanobind7deleterI7ExampleEELb0EEC2Ev(ptr noundef nonnull align 8 dereferenceable(8) %3) #19
  ret void
}

; Function Attrs: mustprogress nounwind optsize uwtable
define linkonce_odr hidden noundef nonnull align 8 dereferenceable(8) ptr @_ZNSt11_Tuple_implILm1EJN8nanobind7deleterI7ExampleEEEE7_M_headERS4_(ptr noundef nonnull align 8 dereferenceable(8) %0) #8 comdat align 2 {
  %2 = alloca ptr, align 8
  store ptr %0, ptr %2, align 8, !tbaa !672
  %3 = load ptr, ptr %2, align 8, !tbaa !672
  %4 = call noundef nonnull align 8 dereferenceable(8) ptr @_ZNSt10_Head_baseILm1EN8nanobind7deleterI7ExampleEELb0EE7_M_headERS4_(ptr noundef nonnull align 8 dereferenceable(8) %3) #21
  ret ptr %4
}

; Function Attrs: mustprogress nounwind optsize uwtable
define linkonce_odr hidden noundef nonnull align 8 dereferenceable(8) ptr @_ZNSt10_Head_baseILm0EP7ExampleLb0EE7_M_headERS2_(ptr noundef nonnull align 8 dereferenceable(8) %0) #8 comdat align 2 {
  %2 = alloca ptr, align 8
  store ptr %0, ptr %2, align 8, !tbaa !642
  %3 = load ptr, ptr %2, align 8, !tbaa !642
  %4 = getelementptr inbounds nuw %"struct.std::_Head_base.357", ptr %3, i32 0, i32 0
  ret ptr %4
}

; Function Attrs: mustprogress optsize uwtable
define linkonce_odr hidden void @_ZNSt11_Tuple_implILm0EJP7ExampleN8nanobind7deleterIS0_EEEEC2Ev(ptr noundef nonnull align 8 dereferenceable(16) %0) unnamed_addr #0 comdat align 2 {
  %2 = alloca ptr, align 8
  store ptr %0, ptr %2, align 8, !tbaa !676
  %3 = load ptr, ptr %2, align 8
  call void @_ZNSt11_Tuple_implILm1EJN8nanobind7deleterI7ExampleEEEEC2Ev(ptr noundef nonnull align 8 dereferenceable(8) %3) #19
  %4 = getelementptr inbounds i8, ptr %3, i64 8
  call void @_ZNSt10_Head_baseILm0EP7ExampleLb0EEC2Ev(ptr noundef nonnull align 8 dereferenceable(8) %4) #19
  ret void
}

; Function Attrs: mustprogress nounwind optsize uwtable
define linkonce_odr hidden noundef nonnull align 8 dereferenceable(8) ptr @_ZSt12__get_helperILm1EN8nanobind7deleterI7ExampleEEJEERT0_RSt11_Tuple_implIXT_EJS4_DpT1_EE(ptr noundef nonnull align 8 dereferenceable(8) %0) #8 comdat {
  %2 = alloca ptr, align 8
  store ptr %0, ptr %2, align 8, !tbaa !672
  %3 = load ptr, ptr %2, align 8, !tbaa !672
  %4 = call noundef nonnull align 8 dereferenceable(8) ptr @_ZNSt11_Tuple_implILm1EJN8nanobind7deleterI7ExampleEEEE7_M_headERS4_(ptr noundef nonnull align 8 dereferenceable(8) %3) #21
  ret ptr %4
}

; Function Attrs: mustprogress nounwind optsize uwtable
define linkonce_odr hidden noundef nonnull align 8 dereferenceable(8) ptr @_ZNSt11_Tuple_implILm0EJP7ExampleN8nanobind7deleterIS0_EEEE7_M_headERS5_(ptr noundef nonnull align 8 dereferenceable(16) %0) #8 comdat align 2 {
  %2 = alloca ptr, align 8
  store ptr %0, ptr %2, align 8, !tbaa !676
  %3 = load ptr, ptr %2, align 8, !tbaa !676
  %4 = getelementptr inbounds i8, ptr %3, i64 8
  %5 = call noundef nonnull align 8 dereferenceable(8) ptr @_ZNSt10_Head_baseILm0EP7ExampleLb0EE7_M_headERS2_(ptr noundef nonnull align 8 dereferenceable(8) %4) #21
  ret ptr %5
}

; Function Attrs: mustprogress nounwind optsize uwtable
define linkonce_odr hidden void @_ZNSt5tupleIJP7ExampleN8nanobind7deleterIS0_EEEEC2ILb1ETnNSt9enable_ifIXclsr17_TupleConstraintsIXT_ES1_S4_EE37__is_implicitly_default_constructibleEEbE4typeELb1EEEv(ptr noundef nonnull align 8 dereferenceable(16) %0) unnamed_addr #8 comdat align 2 personality ptr @__gxx_personality_v0 {
  %2 = alloca ptr, align 8
  store ptr %0, ptr %2, align 8, !tbaa !670
  %3 = load ptr, ptr %2, align 8
  invoke void @_ZNSt11_Tuple_implILm0EJP7ExampleN8nanobind7deleterIS0_EEEEC2Ev(ptr noundef nonnull align 8 dereferenceable(16) %3) #19
          to label %4 unwind label %5

4:                                                ; preds = %1
  ret void

5:                                                ; preds = %1
  %6 = landingpad { ptr, i32 }
          catch ptr null
  %7 = extractvalue { ptr, i32 } %6, 0
  call void @__clang_call_terminate(ptr %7) #22
  unreachable
}

; Function Attrs: mustprogress nounwind optsize uwtable
define linkonce_odr hidden noundef nonnull align 8 dereferenceable(8) ptr @_ZSt3getILm1EJP7ExampleN8nanobind7deleterIS0_EEEERNSt13tuple_elementIXT_ESt5tupleIJDpT0_EEE4typeERS9_(ptr noundef nonnull align 8 dereferenceable(16) %0) #8 comdat {
  %2 = alloca ptr, align 8
  store ptr %0, ptr %2, align 8, !tbaa !670
  %3 = load ptr, ptr %2, align 8, !tbaa !670
  %4 = call noundef nonnull align 8 dereferenceable(8) ptr @_ZSt12__get_helperILm1EN8nanobind7deleterI7ExampleEEJEERT0_RSt11_Tuple_implIXT_EJS4_DpT1_EE(ptr noundef nonnull align 8 dereferenceable(8) %3) #21
  ret ptr %4
}

; Function Attrs: mustprogress nounwind optsize uwtable
define linkonce_odr hidden noundef nonnull align 8 dereferenceable(8) ptr @_ZSt12__get_helperILm0EP7ExampleJN8nanobind7deleterIS0_EEEERT0_RSt11_Tuple_implIXT_EJS5_DpT1_EE(ptr noundef nonnull align 8 dereferenceable(16) %0) #8 comdat {
  %2 = alloca ptr, align 8
  store ptr %0, ptr %2, align 8, !tbaa !676
  %3 = load ptr, ptr %2, align 8, !tbaa !676
  %4 = call noundef nonnull align 8 dereferenceable(8) ptr @_ZNSt11_Tuple_implILm0EJP7ExampleN8nanobind7deleterIS0_EEEE7_M_headERS5_(ptr noundef nonnull align 8 dereferenceable(16) %3) #21
  ret ptr %4
}

; Function Attrs: mustprogress nounwind optsize uwtable
define linkonce_odr hidden void @_ZNSt15__uniq_ptr_implI7ExampleN8nanobind7deleterIS0_EEEC2EPS0_(ptr noundef nonnull align 8 dereferenceable(16) %0, ptr noundef %1) unnamed_addr #8 comdat align 2 {
  %3 = alloca ptr, align 8
  %4 = alloca ptr, align 8
  store ptr %0, ptr %3, align 8, !tbaa !668
  store ptr %1, ptr %4, align 8, !tbaa !154
  %5 = load ptr, ptr %3, align 8
  %6 = getelementptr inbounds nuw %"class.std::__uniq_ptr_impl.365", ptr %5, i32 0, i32 0
  call void @_ZNSt5tupleIJP7ExampleN8nanobind7deleterIS0_EEEEC2ILb1ETnNSt9enable_ifIXclsr17_TupleConstraintsIXT_ES1_S4_EE37__is_implicitly_default_constructibleEEbE4typeELb1EEEv(ptr noundef nonnull align 8 dereferenceable(16) %6) #21
  %7 = load ptr, ptr %4, align 8, !tbaa !154
  %8 = call noundef nonnull align 8 dereferenceable(8) ptr @_ZNSt15__uniq_ptr_implI7ExampleN8nanobind7deleterIS0_EEE6_M_ptrEv(ptr noundef nonnull align 8 dereferenceable(16) %5) #21
  store ptr %7, ptr %8, align 8, !tbaa !154
  ret void
}

; Function Attrs: mustprogress nounwind optsize uwtable
define linkonce_odr hidden noundef nonnull align 8 dereferenceable(8) ptr @_ZNSt15__uniq_ptr_implI7ExampleN8nanobind7deleterIS0_EEE10_M_deleterEv(ptr noundef nonnull align 8 dereferenceable(16) %0) #8 comdat align 2 {
  %2 = alloca ptr, align 8
  store ptr %0, ptr %2, align 8, !tbaa !668
  %3 = load ptr, ptr %2, align 8
  %4 = getelementptr inbounds nuw %"class.std::__uniq_ptr_impl.365", ptr %3, i32 0, i32 0
  %5 = call noundef nonnull align 8 dereferenceable(8) ptr @_ZSt3getILm1EJP7ExampleN8nanobind7deleterIS0_EEEERNSt13tuple_elementIXT_ESt5tupleIJDpT0_EEE4typeERS9_(ptr noundef nonnull align 8 dereferenceable(16) %4) #21
  ret ptr %5
}

; Function Attrs: mustprogress nounwind optsize uwtable
define linkonce_odr hidden noundef nonnull align 8 dereferenceable(8) ptr @_ZSt3getILm0EJP7ExampleN8nanobind7deleterIS0_EEEERNSt13tuple_elementIXT_ESt5tupleIJDpT0_EEE4typeERS9_(ptr noundef nonnull align 8 dereferenceable(16) %0) #8 comdat {
  %2 = alloca ptr, align 8
  store ptr %0, ptr %2, align 8, !tbaa !670
  %3 = load ptr, ptr %2, align 8, !tbaa !670
  %4 = call noundef nonnull align 8 dereferenceable(8) ptr @_ZSt12__get_helperILm0EP7ExampleJN8nanobind7deleterIS0_EEEERT0_RSt11_Tuple_implIXT_EJS5_DpT1_EE(ptr noundef nonnull align 8 dereferenceable(16) %3) #21
  ret ptr %4
}

; Function Attrs: noinline noreturn nounwind optsize uwtable
define linkonce_odr hidden void @__clang_call_terminate(ptr noundef %0) #7 comdat {
  %2 = call ptr @__cxa_begin_catch(ptr %0) #20
  call void @_ZSt9terminatev() #22
  unreachable
}

; Function Attrs: inlinehint mustprogress optsize uwtable
define linkonce_odr hidden void @_ZNSt15__uniq_ptr_dataI7ExampleN8nanobind7deleterIS0_EELb1ELb1EECI2St15__uniq_ptr_implIS0_S3_EEPS0_(ptr noundef nonnull align 8 dereferenceable(16) %0, ptr noundef %1) unnamed_addr #9 comdat align 2 {
  %3 = alloca ptr, align 8
  %4 = alloca ptr, align 8
  store ptr %0, ptr %3, align 8, !tbaa !678
  store ptr %1, ptr %4, align 8, !tbaa !154
  %5 = load ptr, ptr %3, align 8
  %6 = load ptr, ptr %4, align 8, !tbaa !154
  call void @_ZNSt15__uniq_ptr_implI7ExampleN8nanobind7deleterIS0_EEEC2EPS0_(ptr noundef nonnull align 8 dereferenceable(16) %5, ptr noundef %6) #19
  ret void
}

; Function Attrs: mustprogress nounwind optsize uwtable
define linkonce_odr hidden noundef nonnull align 8 dereferenceable(8) ptr @_ZNSt10unique_ptrI7ExampleN8nanobind7deleterIS0_EEE11get_deleterEv(ptr noundef nonnull align 8 dereferenceable(16) %0) #8 comdat align 2 {
  %2 = alloca ptr, align 8
  store ptr %0, ptr %2, align 8, !tbaa !662
  %3 = load ptr, ptr %2, align 8
  %4 = getelementptr inbounds nuw %"class.std::unique_ptr.363", ptr %3, i32 0, i32 0
  %5 = call noundef nonnull align 8 dereferenceable(8) ptr @_ZNSt15__uniq_ptr_implI7ExampleN8nanobind7deleterIS0_EEE10_M_deleterEv(ptr noundef nonnull align 8 dereferenceable(16) %4) #21
  ret ptr %5
}

; Function Attrs: mustprogress nounwind optsize uwtable
define linkonce_odr hidden noundef nonnull align 8 dereferenceable(8) ptr @_ZNSt15__uniq_ptr_implI7ExampleN8nanobind7deleterIS0_EEE6_M_ptrEv(ptr noundef nonnull align 8 dereferenceable(16) %0) #8 comdat align 2 {
  %2 = alloca ptr, align 8
  store ptr %0, ptr %2, align 8, !tbaa !668
  %3 = load ptr, ptr %2, align 8
  %4 = getelementptr inbounds nuw %"class.std::__uniq_ptr_impl.365", ptr %3, i32 0, i32 0
  %5 = call noundef nonnull align 8 dereferenceable(8) ptr @_ZSt3getILm0EJP7ExampleN8nanobind7deleterIS0_EEEERNSt13tuple_elementIXT_ESt5tupleIJDpT0_EEE4typeERS9_(ptr noundef nonnull align 8 dereferenceable(16) %4) #21
  ret ptr %5
}

; Function Attrs: mustprogress nounwind optsize uwtable
define linkonce_odr hidden void @_ZNSt10unique_ptrI7ExampleN8nanobind7deleterIS0_EEEC2IS3_vEEPS0_(ptr noundef nonnull align 8 dereferenceable(16) %0, ptr noundef %1) unnamed_addr #8 comdat align 2 personality ptr @__gxx_personality_v0 {
  %3 = alloca ptr, align 8
  %4 = alloca ptr, align 8
  store ptr %0, ptr %3, align 8, !tbaa !662
  store ptr %1, ptr %4, align 8, !tbaa !154
  %5 = load ptr, ptr %3, align 8
  %6 = getelementptr inbounds nuw %"class.std::unique_ptr.363", ptr %5, i32 0, i32 0
  %7 = load ptr, ptr %4, align 8, !tbaa !154
  invoke void @_ZNSt15__uniq_ptr_dataI7ExampleN8nanobind7deleterIS0_EELb1ELb1EECI2St15__uniq_ptr_implIS0_S3_EEPS0_(ptr noundef nonnull align 8 dereferenceable(16) %6, ptr noundef %7) #19
          to label %8 unwind label %9

8:                                                ; preds = %2
  ret void

9:                                                ; preds = %2
  %10 = landingpad { ptr, i32 }
          catch ptr null
  %11 = extractvalue { ptr, i32 } %10, 0
  call void @__clang_call_terminate(ptr %11) #22
  unreachable
}

; Function Attrs: mustprogress nounwind optsize uwtable
define linkonce_odr hidden void @_ZN7ExampleC2Ei(ptr noundef nonnull align 4 dereferenceable(4) %0, i32 noundef %1) unnamed_addr #8 comdat align 2 {
  %3 = alloca ptr, align 8
  %4 = alloca i32, align 4
  store ptr %0, ptr %3, align 8, !tbaa !154
  store i32 %1, ptr %4, align 4, !tbaa !22
  %5 = load ptr, ptr %3, align 8
  %6 = getelementptr inbounds nuw %struct.Example, ptr %5, i32 0, i32 0
  %7 = load i32, ptr %4, align 4, !tbaa !22
  store i32 %7, ptr %6, align 4, !tbaa !210
  %8 = load i32, ptr @_ZL7created, align 4, !tbaa !22
  %9 = add nsw i32 %8, 1
  store i32 %9, ptr @_ZL7created, align 4, !tbaa !22
  ret void
}

; Function Attrs: mustprogress nounwind optsize uwtable
define linkonce_odr hidden void @_ZNSt10unique_ptrI7ExampleN8nanobind7deleterIS0_EEED2Ev(ptr noundef nonnull align 8 dereferenceable(16) %0) unnamed_addr #8 comdat align 2 {
  %2 = alloca ptr, align 8
  %3 = alloca ptr, align 8
  store ptr %0, ptr %2, align 8, !tbaa !662
  %4 = load ptr, ptr %2, align 8
  call void @llvm.lifetime.start.p0(i64 8, ptr %3) #20
  %5 = getelementptr inbounds nuw %"class.std::unique_ptr.363", ptr %4, i32 0, i32 0
  %6 = call noundef nonnull align 8 dereferenceable(8) ptr @_ZNSt15__uniq_ptr_implI7ExampleN8nanobind7deleterIS0_EEE6_M_ptrEv(ptr noundef nonnull align 8 dereferenceable(16) %5) #21
  store ptr %6, ptr %3, align 8, !tbaa !229
  %7 = load ptr, ptr %3, align 8, !tbaa !229
  %8 = load ptr, ptr %7, align 8, !tbaa !154
  %9 = icmp ne ptr %8, null
  br i1 %9, label %10, label %14

10:                                               ; preds = %1
  %11 = call noundef nonnull align 8 dereferenceable(8) ptr @_ZNSt10unique_ptrI7ExampleN8nanobind7deleterIS0_EEE11get_deleterEv(ptr noundef nonnull align 8 dereferenceable(16) %4) #21
  %12 = load ptr, ptr %3, align 8, !tbaa !229
  %13 = load ptr, ptr %12, align 8, !tbaa !154
  call void @_ZN8nanobind7deleterI7ExampleEclEPv(ptr noundef nonnull align 8 dereferenceable(8) %11, ptr noundef %13) #21
  br label %14

14:                                               ; preds = %10, %1
  %15 = load ptr, ptr %3, align 8, !tbaa !229
  store ptr null, ptr %15, align 8, !tbaa !154
  call void @llvm.lifetime.end.p0(i64 8, ptr %3) #20
  ret void
}

; Function Attrs: alwaysinline mustprogress nounwind optsize uwtable
define linkonce_odr hidden noundef ptr @_ZNK8nanobind6handle3ptrEv(ptr noundef nonnull align 8 dereferenceable(8) %0) #5 comdat align 2 {
  %2 = alloca ptr, align 8
  store ptr %0, ptr %2, align 8, !tbaa !12
  %3 = load ptr, ptr %2, align 8
  %4 = getelementptr inbounds nuw %"class.nanobind::handle", ptr %3, i32 0, i32 0
  %5 = load ptr, ptr %4, align 8, !tbaa !14
  ret ptr %5
}

; Function Attrs: inlinehint mustprogress optsize uwtable
define internal void @"_ZZL30nanobind_init_test_holders_extRN8nanobind7module_EENK4$_21clEv"(ptr dead_on_unwind noalias writable sret(%"class.std::unique_ptr.363") align 8 %0, ptr noundef nonnull align 1 dereferenceable(1) %1) #9 align 2 personality ptr @__gxx_personality_v0 {
  %3 = alloca ptr, align 8
  %4 = alloca ptr, align 8
  %5 = alloca ptr, align 8
  %6 = alloca i32, align 4
  store ptr %0, ptr %3, align 8
  store ptr %1, ptr %4, align 8, !tbaa !18
  %7 = call noalias noundef nonnull ptr @_Znwm(i64 noundef 4) #23
  invoke void @_ZN7ExampleC2Ei(ptr noundef nonnull align 4 dereferenceable(4) %7, i32 noundef 2) #19
          to label %8 unwind label %9

8:                                                ; preds = %2
  call void @_ZNSt10unique_ptrI7ExampleN8nanobind7deleterIS0_EEEC2IS3_vEEPS0_(ptr noundef nonnull align 8 dereferenceable(16) %0, ptr noundef %7) #21
  ret void

9:                                                ; preds = %2
  %10 = landingpad { ptr, i32 }
          cleanup
  %11 = extractvalue { ptr, i32 } %10, 0
  store ptr %11, ptr %5, align 8
  %12 = extractvalue { ptr, i32 } %10, 1
  store i32 %12, ptr %6, align 4
  call void @_ZdlPvm(ptr noundef %7, i64 noundef 4) #24
  br label %13

13:                                               ; preds = %9
  %14 = load ptr, ptr %5, align 8
  %15 = load i32, ptr %6, align 4
  %16 = insertvalue { ptr, i32 } poison, ptr %14, 0
  %17 = insertvalue { ptr, i32 } %16, i32 %15, 1
  resume { ptr, i32 } %17
}

; Function Attrs: alwaysinline mustprogress optsize uwtable
define internal noundef ptr @"_ZZN8nanobind6detail11func_createILb0ELb1EZL30nanobind_init_test_holders_extRNS_7module_EE4$_21St10unique_ptrI7ExampleNS_7deleterIS6_EEEJETpTnmJEJNS_5scopeENS_4nameEEEEP7_objectOT1_PFT2_DpT3_ESt16integer_sequenceImJXspT4_EEEDpRKT5_ENKUlPvPSD_PhNS_9rv_policyEPNS0_12cleanup_listEE_clESR_SS_ST_SU_SW_"(ptr noundef nonnull align 1 dereferenceable(1) %0, ptr noundef %1, ptr noundef %2, ptr noundef %3, i32 noundef %4, ptr noundef %5) #3 align 2 {
  %7 = alloca ptr, align 8
  %8 = alloca ptr, align 8
  %9 = alloca ptr, align 8
  %10 = alloca ptr, align 8
  %11 = alloca i32, align 4
  %12 = alloca ptr, align 8
  %13 = alloca ptr, align 8
  %14 = alloca ptr, align 8
  %15 = alloca %"class.nanobind::handle", align 8
  %16 = alloca %"class.std::unique_ptr.363", align 8
  store ptr %0, ptr %7, align 8, !tbaa !18
  store ptr %1, ptr %8, align 8, !tbaa !18
  store ptr %2, ptr %9, align 8, !tbaa !188
  store ptr %3, ptr %10, align 8, !tbaa !34
  store i32 %4, ptr %11, align 4, !tbaa !20
  store ptr %5, ptr %12, align 8, !tbaa !190
  call void @llvm.lifetime.start.p0(i64 8, ptr %13) #20
  %17 = load ptr, ptr %8, align 8, !tbaa !18
  store ptr %17, ptr %13, align 8, !tbaa !658
  call void @llvm.lifetime.start.p0(i64 8, ptr %14) #20
  call void @llvm.lifetime.start.p0(i64 8, ptr %15) #20
  call void @llvm.lifetime.start.p0(i64 16, ptr %16) #20
  %18 = load ptr, ptr %13, align 8, !tbaa !658
  call void @"_ZZL30nanobind_init_test_holders_extRN8nanobind7module_EENK4$_21clEv"(ptr dead_on_unwind writable sret(%"class.std::unique_ptr.363") align 8 %16, ptr noundef nonnull align 1 dereferenceable(1) %18) #19
  %19 = load i32, ptr %11, align 4, !tbaa !20
  %20 = load ptr, ptr %12, align 8, !tbaa !190
  %21 = call ptr @_ZN8nanobind6detail11type_casterISt10unique_ptrI7ExampleNS_7deleterIS3_EEEiE8from_cppIS6_EENS_6handleEOT_NS_9rv_policyEPNS0_12cleanup_listE(ptr noundef nonnull align 8 dereferenceable(16) %16, i32 noundef %19, ptr noundef %20) #21
  %22 = getelementptr inbounds nuw %"class.nanobind::handle", ptr %15, i32 0, i32 0
  store ptr %21, ptr %22, align 8
  %23 = call noundef ptr @_ZNK8nanobind6handle3ptrEv(ptr noundef nonnull align 8 dereferenceable(8) %15) #19
  store ptr %23, ptr %14, align 8, !tbaa !3
  call void @_ZNSt10unique_ptrI7ExampleN8nanobind7deleterIS0_EEED2Ev(ptr noundef nonnull align 8 dereferenceable(16) %16) #21
  call void @llvm.lifetime.end.p0(i64 16, ptr %16) #20
  call void @llvm.lifetime.end.p0(i64 8, ptr %15) #20
  %24 = load ptr, ptr %14, align 8, !tbaa !3
  call void @llvm.lifetime.end.p0(i64 8, ptr %14) #20
  call void @llvm.lifetime.end.p0(i64 8, ptr %13) #20
  ret ptr %24
}

; Function Attrs: inlinehint mustprogress optsize uwtable
define internal noundef ptr @"_ZZN8nanobind6detail11func_createILb0ELb1EZL30nanobind_init_test_holders_extRNS_7module_EE4$_21St10unique_ptrI7ExampleNS_7deleterIS6_EEEJETpTnmJEJNS_5scopeENS_4nameEEEEP7_objectOT1_PFT2_DpT3_ESt16integer_sequenceImJXspT4_EEEDpRKT5_ENUlPvPSD_PhNS_9rv_policyEPNS0_12cleanup_listEE_8__invokeESR_SS_ST_SU_SW_"(ptr noundef %0, ptr noundef %1, ptr noundef %2, i32 noundef %3, ptr noundef %4) #9 align 2 {
  %6 = alloca ptr, align 8
  %7 = alloca ptr, align 8
  %8 = alloca ptr, align 8
  %9 = alloca i32, align 4
  %10 = alloca ptr, align 8
  %11 = alloca %class.anon.361, align 1
  store ptr %0, ptr %6, align 8, !tbaa !18
  store ptr %1, ptr %7, align 8, !tbaa !188
  store ptr %2, ptr %8, align 8, !tbaa !34
  store i32 %3, ptr %9, align 4, !tbaa !20
  store ptr %4, ptr %10, align 8, !tbaa !190
  %12 = load ptr, ptr %6, align 8, !tbaa !18
  %13 = load ptr, ptr %7, align 8, !tbaa !188
  %14 = load ptr, ptr %8, align 8, !tbaa !34
  %15 = load i32, ptr %9, align 4, !tbaa !20
  %16 = load ptr, ptr %10, align 8, !tbaa !190
  %17 = call noundef ptr @"_ZZN8nanobind6detail11func_createILb0ELb1EZL30nanobind_init_test_holders_extRNS_7module_EE4$_21St10unique_ptrI7ExampleNS_7deleterIS6_EEEJETpTnmJEJNS_5scopeENS_4nameEEEEP7_objectOT1_PFT2_DpT3_ESt16integer_sequenceImJXspT4_EEEDpRKT5_ENKUlPvPSD_PhNS_9rv_policyEPNS0_12cleanup_listEE_clESR_SS_ST_SU_SW_"(ptr noundef nonnull align 1 dereferenceable(1) %11, ptr noundef %12, ptr noundef %13, ptr noundef %14, i32 noundef %15, ptr noundef %16) #19
  ret ptr %17
}