; Function Attrs: inlinehint mustprogress optsize uwtable
define internal noundef ptr @"_ZZN8nanobind6detail11func_createILb0ELb1EZL30nanobind_init_test_holders_extRNS_7module_EE4$_21St10unique_ptrI7ExampleNS_7deleterIS6_EEEJETpTnmJEJNS_5scopeENS_4nameEEEEP7_objectOT1_PFT2_DpT3_ESt16integer_sequenceImJXspT4_EEEDpRKT5_ENUlPvPSD_PhNS_9rv_policyEPNS0_12cleanup_listEE_8__invokeESR_SS_ST_SU_SW_"(ptr readnone captures(none) %0, ptr readnone captures(none) %1, ptr readnone captures(none) %2, i32 noundef %3, ptr noundef %4) #8 align 2 personality ptr @__gxx_personality_v0 {
  %6 = alloca %"class.std::unique_ptr.363", align 8
  call void @llvm.lifetime.start.p0(i64 16, ptr nonnull %6) #26
  tail call void @llvm.experimental.noalias.scope.decl(metadata !300)
  %7 = tail call noalias noundef nonnull dereferenceable(4) ptr @_Znwm(i64 noundef 4) #29, !noalias !300
  store i32 2, ptr %7, align 4, !tbaa !118, !noalias !300
  %8 = load i32, ptr @_ZL7created, align 4, !tbaa !69, !noalias !300
  %9 = add nsw i32 %8, 1
  store i32 %9, ptr @_ZL7created, align 4, !tbaa !69, !noalias !300
  store i64 0, ptr %6, align 8, !alias.scope !300
  %10 = getelementptr inbounds nuw i8, ptr %6, i64 8
  store ptr %7, ptr %10, align 8, !tbaa !129, !alias.scope !300
  %11 = call ptr @_ZN8nanobind6detail11type_casterISt10unique_ptrI7ExampleNS_7deleterIS3_EEEiE8from_cppIS6_EENS_6handleEOT_NS_9rv_policyEPNS0_12cleanup_listE(ptr noundef nonnull align 8 dereferenceable(16) %6, i32 noundef %3, ptr noundef %4) #27
  %12 = load ptr, ptr %10, align 8, !tbaa !129
  %.not.i = icmp eq ptr %12, null
  br i1 %.not.i, label %_ZNSt10unique_ptrI7ExampleN8nanobind7deleterIS0_EEED2Ev.exit, label %13

13:                                               ; preds = %5
  call void @_ZN8nanobind7deleterI7ExampleEclEPv(ptr noundef nonnull align 8 dereferenceable(16) %6, ptr noundef nonnull %12) #27
  br label %_ZNSt10unique_ptrI7ExampleN8nanobind7deleterIS0_EEED2Ev.exit

_ZNSt10unique_ptrI7ExampleN8nanobind7deleterIS0_EEED2Ev.exit: ; preds = %5, %13
  call void @llvm.lifetime.end.p0(i64 16, ptr nonnull %6) #26
  ret ptr %11
}